#include <math.h>
#include <stdio.h>
#include <stdlib.h>
#include <string.h>
#include <iostream>
using namespace std;

//***************************
//**???1.cpp
//**??????
//**???2013.12.4
//**??????????
//***************************

int n, k;
int n0; // n0???????
int flag; // flag???
void calc(int p);

int main()
{	
	cin >> n >> k;
	n0 = n;
	for (int i = 2; i <= 100000000; i++) // ???????
	{
		flag = 0;
		n = n0;
		calc(i);
		if (flag == 0) // ???n???????
		{
			cout << i << endl;
			break; // ???????
		}
	}
	return 0;
}
void calc(int p)
{
	if (n == 0)
		return;
	else
	{
		if ((p - k) % n0 == 0 && p - k >= n0) // ???????????
		{
			n--;
			calc((p - k) * (n0 - 1) / n0); // ?????????
		}
		else
			flag = 1; // ??????????
	}
}